; Function Attrs: mustprogress uwtable
define noundef i32 @_ZN6icu_7717StringTrieBuilder21IntermediateValueNode19markRightEdgesFirstEi(ptr noundef nonnull align 8 captures(none) dereferenceable(32) %0, i32 noundef %1) unnamed_addr #2 align 2 {
  %3 = getelementptr inbounds nuw i8, ptr %0, i64 12
  %4 = load i32, ptr %3, align 4, !tbaa !21
  %5 = icmp eq i32 %4, 0
  br i1 %5, label %6, label %13

6:                                                ; preds = %2
  %7 = getelementptr inbounds nuw i8, ptr %0, i64 24
  %8 = load ptr, ptr %7, align 8, !tbaa !29
  %9 = load ptr, ptr %8, align 8, !tbaa !3
  %10 = getelementptr inbounds nuw i8, ptr %9, i64 32
  %11 = load ptr, ptr %10, align 8
  %12 = tail call noundef i32 %11(ptr noundef nonnull align 8 dereferenceable(16) %8, i32 noundef %1)
  store i32 %12, ptr %3, align 4, !tbaa !21
  br label %13

13:                                               ; preds = %6, %2
  %.0 = phi i32 [ %12, %6 ], [ %1, %2 ]
  ret i32 %.0
}